target datalayout = "e-m:e-p270:32:32-p271:32:32-p272:64:64-i64:64-i128:128-f80:128-n8:16:32:64-S128"
target triple = "x86_64-pc-linux-gnu"

%"class.clang::Stmt" = type { %union.anon }
%union.anon = type { %"class.clang::Stmt::PseudoObjectExprBitfields" }
%"class.clang::Stmt::PseudoObjectExprBitfields" = type { i64 }
%"class.clang::Expr" = type { %"class.clang::ValueStmt", %"class.clang::QualType" }
%"class.clang::ValueStmt" = type { %"class.clang::Stmt" }
%"class.clang::QualType" = type { %"class.llvm::PointerIntPair" }
%"class.llvm::PointerIntPair" = type { %"struct.llvm::detail::PunnedPointer" }
%"struct.llvm::detail::PunnedPointer" = type { [8 x i8] }
%"class.clang::BlockExpr" = type { %"class.clang::Expr", ptr }

; Function Attrs: mustprogress nounwind uwtable
define dso_local noundef ptr @_ZNK5clang9BlockExpr7getBodyEv(ptr noundef nonnull align 8 dereferenceable(24) %0) #0 align 2 {
  %2 = alloca ptr, align 8
  store ptr %0, ptr %2, align 8
  %3 = load ptr, ptr %2, align 8
  %4 = getelementptr inbounds nuw %"class.clang::BlockExpr", ptr %3, i32 0, i32 1
  %5 = load ptr, ptr %4, align 8
  %6 = load ptr, ptr %5, align 8
  %7 = getelementptr inbounds ptr, ptr %6, i64 8
  %8 = load ptr, ptr %7, align 8
  %9 = call noundef ptr %8(ptr noundef nonnull align 8 dereferenceable(128) %5)
  ret ptr %9
}